target datalayout = "e-m:e-p270:32:32-p271:32:32-p272:64:64-i64:64-i128:128-f80:128-n8:16:32:64-S128"
target triple = "x86_64-pc-linux-gnu"

%struct._zend_executor_globals = type { %struct._zval_struct, %struct._zval_struct, [32 x ptr], ptr, ptr, %struct._zend_array, %struct._zend_array, ptr, i32, i8, %struct._zval_struct, i32, ptr, ptr, ptr, ptr, ptr, ptr, i64, ptr, ptr, i32, ptr, i32, i64, i32, i32, i32, i8, i8, %struct.zend_atomic_bool_s, %struct.zend_atomic_bool_s, ptr, i64, ptr, ptr, %struct._zend_array, %struct._zend_array, i32, i8, %struct._zval_struct, %struct._zval_struct, %struct._zend_stack, %struct._zend_stack, %struct._zend_stack, ptr, i32, i32, i64, ptr, ptr, ptr, %struct._zend_objects_store, %struct._zend_lazy_objects_store, ptr, ptr, ptr, [3 x %struct._zend_op], ptr, i8, i8, i64, i32, i32, ptr, [16 x %struct._HashTableIterator], ptr, %union._zend_function, %struct._zend_op, %struct._zend_array, i64, %struct.zend_get_gc_buffer, ptr, ptr, ptr, i64, i8, i32, ptr, ptr, i64, %struct._zend_call_stack, i64, i64, %struct._zend_strtod_state, [6 x ptr] }
%struct.zend_atomic_bool_s = type { i8 }
%struct._zval_struct = type { %union._zend_value, %union.anon.9, %union.anon.12 }
%union._zend_value = type { i64 }
%union.anon.9 = type { i32 }
%union.anon.12 = type { i32 }
%struct._zend_stack = type { i32, i32, i32, ptr }
%struct._zend_objects_store = type { ptr, i32, i32, i32 }
%struct._zend_lazy_objects_store = type { %struct._zend_array }
%struct._HashTableIterator = type { ptr, i32, i32 }
%union._zend_function = type { %struct._zend_op_array }
%struct._zend_op_array = type { i8, [3 x i8], i32, ptr, ptr, ptr, i32, i32, ptr, ptr, ptr, ptr, i32, ptr, i32, i32, i32, ptr, ptr, ptr, ptr, ptr, i32, i32, ptr, ptr, ptr, i32, i32, i32, i32, ptr, ptr, [6 x ptr] }
%struct._zend_op = type { ptr, %union._znode_op, %union._znode_op, %union._znode_op, i32, i32, i8, i8, i8, i8 }
%union._znode_op = type { i32 }
%struct._zend_array = type { %struct._zend_refcounted_h, %union.anon.1, i32, %union.anon.2, i32, i32, i32, i32, i64, ptr }
%struct._zend_refcounted_h = type { i32, %union.anon.0 }
%union.anon.0 = type { i32 }
%union.anon.1 = type { i32 }
%union.anon.2 = type { ptr }
%struct.zend_get_gc_buffer = type { ptr, ptr, ptr }
%struct._zend_call_stack = type { ptr, i64 }
%struct._zend_strtod_state = type { [8 x ptr], ptr, ptr }
%struct.reflection_object = type { %struct._zval_struct, ptr, ptr, i32, %struct._zend_object }
%struct._zend_object = type { %struct._zend_refcounted_h, i32, i32, ptr, ptr, ptr, [1 x %struct._zval_struct] }
%struct._zend_execute_data = type { ptr, ptr, ptr, ptr, %struct._zval_struct, ptr, ptr, ptr, ptr }
%struct._zend_generator = type { %struct._zend_object, ptr, ptr, %struct._zval_struct, %struct._zval_struct, %struct._zval_struct, ptr, i64, %struct._zval_struct, %struct._zend_generator_node, %struct._zend_execute_data, ptr, i8 }
%struct._zend_generator_node = type { ptr, i32, %union.anon.14, %union.anon.15 }
%union.anon.14 = type { ptr }
%union.anon.15 = type { ptr }

@reflection_exception_ptr = dso_local global ptr null, align 8
@executor_globals = external global %struct._zend_executor_globals, align 8
@.str.15 = private unnamed_addr constant [3 x i8] c"|l\00", align 1
@.str.16 = private unnamed_addr constant [49 x i8] c"Cannot fetch information from a closed Generator\00", align 1

; Function Attrs: alwaysinline nounwind uwtable
define internal ptr @zend_generator_get_current(ptr noundef %0) #4 {
  %2 = alloca ptr, align 8
  %3 = alloca ptr, align 8
  %4 = alloca ptr, align 8
  %5 = alloca i32, align 4
  store ptr %0, ptr %3, align 8, !tbaa !162
  %6 = load ptr, ptr %3, align 8, !tbaa !162
  %7 = getelementptr inbounds nuw %struct._zend_generator, ptr %6, i32 0, i32 9
  %8 = getelementptr inbounds nuw %struct._zend_generator_node, ptr %7, i32 0, i32 0
  %9 = load ptr, ptr %8, align 8, !tbaa !170
  %10 = icmp eq ptr %9, null
  %11 = xor i1 %10, true
  %12 = xor i1 %11, true
  %13 = zext i1 %12 to i32
  %14 = sext i32 %13 to i64
  %15 = call i64 @llvm.expect.i64(i64 %14, i64 1)
  %16 = icmp ne i64 %15, 0
  br i1 %16, label %17, label %19

17:                                               ; preds = %1
  %18 = load ptr, ptr %3, align 8, !tbaa !162
  store ptr %18, ptr %2, align 8
  br label %46

19:                                               ; preds = %1
  call void @llvm.lifetime.start.p0(i64 8, ptr %4) #14
  %20 = load ptr, ptr %3, align 8, !tbaa !162
  %21 = getelementptr inbounds nuw %struct._zend_generator, ptr %20, i32 0, i32 9
  %22 = getelementptr inbounds nuw %struct._zend_generator_node, ptr %21, i32 0, i32 3
  %23 = load ptr, ptr %22, align 8, !tbaa !29
  store ptr %23, ptr %4, align 8, !tbaa !162
  %24 = load ptr, ptr %4, align 8, !tbaa !162
  %25 = icmp ne ptr %24, null
  br i1 %25, label %29, label %26

26:                                               ; preds = %19
  %27 = load ptr, ptr %3, align 8, !tbaa !162
  %28 = call ptr @zend_generator_update_root(ptr noundef %27)
  store ptr %28, ptr %4, align 8, !tbaa !162
  br label %29

29:                                               ; preds = %26, %19
  %30 = load ptr, ptr %4, align 8, !tbaa !162
  %31 = getelementptr inbounds nuw %struct._zend_generator, ptr %30, i32 0, i32 1
  %32 = load ptr, ptr %31, align 8, !tbaa !165
  %33 = icmp ne ptr %32, null
  %34 = xor i1 %33, true
  %35 = xor i1 %34, true
  %36 = zext i1 %35 to i32
  %37 = sext i32 %36 to i64
  %38 = call i64 @llvm.expect.i64(i64 %37, i64 1)
  %39 = icmp ne i64 %38, 0
  br i1 %39, label %40, label %42

40:                                               ; preds = %29
  %41 = load ptr, ptr %4, align 8, !tbaa !162
  store ptr %41, ptr %2, align 8
  store i32 1, ptr %5, align 4
  br label %45

42:                                               ; preds = %29
  %43 = load ptr, ptr %3, align 8, !tbaa !162
  %44 = call ptr @zend_generator_update_current(ptr noundef %43)
  store ptr %44, ptr %2, align 8
  store i32 1, ptr %5, align 4
  br label %45

45:                                               ; preds = %42, %40
  call void @llvm.lifetime.end.p0(i64 8, ptr %4) #14
  br label %46

46:                                               ; preds = %45, %17
  %47 = load ptr, ptr %2, align 8
  ret ptr %47
}

; Function Attrs: inlinehint nounwind uwtable
define internal ptr @reflection_object_from_obj(ptr noundef %0) #3 {
  %2 = alloca ptr, align 8
  store ptr %0, ptr %2, align 8, !tbaa !39
  %3 = load ptr, ptr %2, align 8, !tbaa !39
  %4 = getelementptr inbounds i8, ptr %3, i64 -40
  ret ptr %4
}

; Function Attrs: nounwind uwtable
define hidden void @zim_ReflectionGenerator_getTrace(ptr noundef %0, ptr noundef %1) #0 {
  %3 = alloca ptr, align 8
  %4 = alloca ptr, align 8
  %5 = alloca i64, align 8
  %6 = alloca ptr, align 8
  %7 = alloca ptr, align 8
  %8 = alloca ptr, align 8
  %9 = alloca ptr, align 8
  %10 = alloca ptr, align 8
  %11 = alloca ptr, align 8
  %12 = alloca i32, align 4
  store ptr %0, ptr %3, align 8, !tbaa !47
  store ptr %1, ptr %4, align 8, !tbaa !9
  call void @llvm.lifetime.start.p0(i64 8, ptr %5) #14
  store i64 1, ptr %5, align 8, !tbaa !74
  call void @llvm.lifetime.start.p0(i64 8, ptr %6) #14
  %13 = load ptr, ptr %3, align 8, !tbaa !47
  %14 = getelementptr inbounds nuw %struct._zend_execute_data, ptr %13, i32 0, i32 4
  %15 = getelementptr inbounds nuw %struct._zval_struct, ptr %14, i32 0, i32 0
  %16 = load ptr, ptr %15, align 8, !tbaa !29
  %17 = call ptr @reflection_object_from_obj(ptr noundef %16)
  %18 = getelementptr inbounds nuw %struct.reflection_object, ptr %17, i32 0, i32 0
  %19 = getelementptr inbounds nuw %struct._zval_struct, ptr %18, i32 0, i32 0
  %20 = load ptr, ptr %19, align 8, !tbaa !29
  store ptr %20, ptr %6, align 8, !tbaa !162
  call void @llvm.lifetime.start.p0(i64 8, ptr %7) #14
  call void @llvm.lifetime.start.p0(i64 8, ptr %8) #14
  %21 = load ptr, ptr getelementptr inbounds nuw (%struct._zend_executor_globals, ptr @executor_globals, i32 0, i32 19), align 8, !tbaa !164
  store ptr %21, ptr %8, align 8, !tbaa !47
  call void @llvm.lifetime.start.p0(i64 8, ptr %9) #14
  %22 = load ptr, ptr %6, align 8, !tbaa !162
  %23 = getelementptr inbounds nuw %struct._zend_generator, ptr %22, i32 0, i32 1
  %24 = load ptr, ptr %23, align 8, !tbaa !165
  store ptr %24, ptr %9, align 8, !tbaa !47
  call void @llvm.lifetime.start.p0(i64 8, ptr %10) #14
  store ptr null, ptr %10, align 8, !tbaa !47
  call void @llvm.lifetime.start.p0(i64 8, ptr %11) #14
  %25 = load ptr, ptr %3, align 8, !tbaa !47
  %26 = getelementptr inbounds nuw %struct._zend_execute_data, ptr %25, i32 0, i32 4
  %27 = getelementptr inbounds nuw %struct._zval_struct, ptr %26, i32 0, i32 2
  %28 = load i32, ptr %27, align 4, !tbaa !29
  %29 = call i32 (i32, ptr, ...) @zend_parse_parameters(i32 noundef %28, ptr noundef @.str.15, ptr noundef %5)
  %30 = icmp eq i32 %29, -1
  br i1 %30, label %31, label %37

31:                                               ; preds = %2
  br label %32

32:                                               ; preds = %31
  %33 = load ptr, ptr getelementptr inbounds nuw (%struct._zend_executor_globals, ptr @executor_globals, i32 0, i32 54), align 8, !tbaa !49
  %34 = icmp ne ptr %33, null
  call void @llvm.assume(i1 %34)
  store i32 1, ptr %12, align 4
  br label %97

35:                                               ; No predecessors!
  br label %36

36:                                               ; preds = %35
  br label %37

37:                                               ; preds = %36, %2
  %38 = load ptr, ptr %9, align 8, !tbaa !47
  %39 = icmp ne ptr %38, null
  br i1 %39, label %48, label %40

40:                                               ; preds = %37
  %41 = load ptr, ptr @reflection_exception_ptr, align 8, !tbaa !4
  %42 = call ptr @zend_throw_exception(ptr noundef %41, ptr noundef @.str.16, i64 noundef 0)
  br label %43

43:                                               ; preds = %40
  %44 = load ptr, ptr getelementptr inbounds nuw (%struct._zend_executor_globals, ptr @executor_globals, i32 0, i32 54), align 8, !tbaa !49
  %45 = icmp ne ptr %44, null
  call void @llvm.assume(i1 %45)
  store i32 1, ptr %12, align 4
  br label %97

46:                                               ; No predecessors!
  br label %47

47:                                               ; preds = %46
  br label %48

48:                                               ; preds = %47, %37
  %49 = load ptr, ptr %6, align 8, !tbaa !162
  %50 = call ptr @zend_generator_get_current(ptr noundef %49)
  store ptr %50, ptr %7, align 8, !tbaa !162
  %51 = load ptr, ptr %6, align 8, !tbaa !162
  %52 = getelementptr inbounds nuw %struct._zend_generator, ptr %51, i32 0, i32 1
  %53 = load ptr, ptr %52, align 8, !tbaa !165
  %54 = getelementptr inbounds nuw %struct._zend_execute_data, ptr %53, i32 0, i32 5
  %55 = load ptr, ptr %54, align 8, !tbaa !168
  store ptr %55, ptr %11, align 8, !tbaa !47
  %56 = load ptr, ptr %6, align 8, !tbaa !162
  %57 = load ptr, ptr %7, align 8, !tbaa !162
  %58 = icmp eq ptr %56, %57
  br i1 %58, label %59, label %64

59:                                               ; preds = %48
  %60 = load ptr, ptr %6, align 8, !tbaa !162
  %61 = getelementptr inbounds nuw %struct._zend_generator, ptr %60, i32 0, i32 1
  %62 = load ptr, ptr %61, align 8, !tbaa !165
  %63 = getelementptr inbounds nuw %struct._zend_execute_data, ptr %62, i32 0, i32 5
  store ptr null, ptr %63, align 8, !tbaa !168
  br label %79

64:                                               ; preds = %48
  %65 = load ptr, ptr %7, align 8, !tbaa !162
  %66 = getelementptr inbounds nuw %struct._zend_generator, ptr %65, i32 0, i32 1
  %67 = load ptr, ptr %66, align 8, !tbaa !165
  %68 = getelementptr inbounds nuw %struct._zend_execute_data, ptr %67, i32 0, i32 5
  %69 = load ptr, ptr %68, align 8, !tbaa !168
  store ptr %69, ptr %10, align 8, !tbaa !47
  %70 = load ptr, ptr %6, align 8, !tbaa !162
  %71 = getelementptr inbounds nuw %struct._zend_generator, ptr %70, i32 0, i32 10
  %72 = getelementptr inbounds nuw %struct._zend_execute_data, ptr %71, i32 0, i32 5
  store ptr null, ptr %72, align 8, !tbaa !169
  %73 = load ptr, ptr %6, align 8, !tbaa !162
  %74 = getelementptr inbounds nuw %struct._zend_generator, ptr %73, i32 0, i32 10
  %75 = load ptr, ptr %7, align 8, !tbaa !162
  %76 = getelementptr inbounds nuw %struct._zend_generator, ptr %75, i32 0, i32 1
  %77 = load ptr, ptr %76, align 8, !tbaa !165
  %78 = getelementptr inbounds nuw %struct._zend_execute_data, ptr %77, i32 0, i32 5
  store ptr %74, ptr %78, align 8, !tbaa !168
  br label %79

79:                                               ; preds = %64, %59
  %80 = load ptr, ptr %7, align 8, !tbaa !162
  %81 = getelementptr inbounds nuw %struct._zend_generator, ptr %80, i32 0, i32 1
  %82 = load ptr, ptr %81, align 8, !tbaa !165
  store ptr %82, ptr getelementptr inbounds nuw (%struct._zend_executor_globals, ptr @executor_globals, i32 0, i32 19), align 8, !tbaa !164
  %83 = load ptr, ptr %4, align 8, !tbaa !9
  %84 = load i64, ptr %5, align 8, !tbaa !74
  %85 = trunc i64 %84 to i32
  call void @zend_fetch_debug_backtrace(ptr noundef %83, i32 noundef 0, i32 noundef %85, i32 noundef 0)
  %86 = load ptr, ptr %8, align 8, !tbaa !47
  store ptr %86, ptr getelementptr inbounds nuw (%struct._zend_executor_globals, ptr @executor_globals, i32 0, i32 19), align 8, !tbaa !164
  %87 = load ptr, ptr %10, align 8, !tbaa !47
  %88 = load ptr, ptr %7, align 8, !tbaa !162
  %89 = getelementptr inbounds nuw %struct._zend_generator, ptr %88, i32 0, i32 1
  %90 = load ptr, ptr %89, align 8, !tbaa !165
  %91 = getelementptr inbounds nuw %struct._zend_execute_data, ptr %90, i32 0, i32 5
  store ptr %87, ptr %91, align 8, !tbaa !168
  %92 = load ptr, ptr %11, align 8, !tbaa !47
  %93 = load ptr, ptr %6, align 8, !tbaa !162
  %94 = getelementptr inbounds nuw %struct._zend_generator, ptr %93, i32 0, i32 1
  %95 = load ptr, ptr %94, align 8, !tbaa !165
  %96 = getelementptr inbounds nuw %struct._zend_execute_data, ptr %95, i32 0, i32 5
  store ptr %92, ptr %96, align 8, !tbaa !168
  store i32 0, ptr %12, align 4
  br label %97

97:                                               ; preds = %79, %43, %32
  call void @llvm.lifetime.end.p0(i64 8, ptr %11) #14
  call void @llvm.lifetime.end.p0(i64 8, ptr %10) #14
  call void @llvm.lifetime.end.p0(i64 8, ptr %9) #14
  call void @llvm.lifetime.end.p0(i64 8, ptr %8) #14
  call void @llvm.lifetime.end.p0(i64 8, ptr %7) #14
  call void @llvm.lifetime.end.p0(i64 8, ptr %6) #14
  call void @llvm.lifetime.end.p0(i64 8, ptr %5) #14
  %98 = load i32, ptr %12, align 4
  switch i32 %98, label %100 [
    i32 0, label %99
    i32 1, label %99
  ]

99:                                               ; preds = %97, %97
  ret void

100:                                              ; preds = %97
  unreachable
}