; Function Attrs: nounwind uwtable
define hidden void @zim_ReflectionGenerator_getTrace(ptr noundef readonly captures(none) %0, ptr noundef %1) #0 {
  %3 = alloca i64, align 8
  call void @llvm.lifetime.start.p0(i64 8, ptr nonnull %3) #13
  store i64 1, ptr %3, align 8, !tbaa !65
  %4 = getelementptr inbounds nuw i8, ptr %0, i64 32
  %5 = load ptr, ptr %4, align 8, !tbaa !26
  %6 = getelementptr inbounds i8, ptr %5, i64 -40
  %7 = load ptr, ptr %6, align 8, !tbaa !26
  %8 = load ptr, ptr getelementptr inbounds nuw (i8, ptr @executor_globals, i64 512), align 8, !tbaa !157
  %9 = getelementptr inbounds nuw i8, ptr %7, i64 56
  %10 = load ptr, ptr %9, align 8, !tbaa !158
  %11 = getelementptr inbounds nuw i8, ptr %0, i64 44
  %12 = load i32, ptr %11, align 4, !tbaa !26
  %13 = call i32 (i32, ptr, ...) @zend_parse_parameters(i32 noundef %12, ptr noundef nonnull @.str.15, ptr noundef nonnull %3) #13
  %14 = icmp eq i32 %13, -1
  br i1 %14, label %15, label %18

15:                                               ; preds = %2
  %16 = load ptr, ptr getelementptr inbounds nuw (i8, ptr @executor_globals, i64 960), align 8, !tbaa !39
  %17 = icmp ne ptr %16, null
  call void @llvm.assume(i1 %17)
  br label %62

18:                                               ; preds = %2
  %.not = icmp eq ptr %10, null
  br i1 %.not, label %19, label %24

19:                                               ; preds = %18
  %20 = load ptr, ptr @reflection_exception_ptr, align 8, !tbaa !38
  %21 = call ptr @zend_throw_exception(ptr noundef %20, ptr noundef nonnull @.str.16, i64 noundef 0) #13
  %22 = load ptr, ptr getelementptr inbounds nuw (i8, ptr @executor_globals, i64 960), align 8, !tbaa !39
  %23 = icmp ne ptr %22, null
  call void @llvm.assume(i1 %23)
  br label %62

24:                                               ; preds = %18
  %25 = getelementptr inbounds nuw i8, ptr %7, i64 152
  %26 = load ptr, ptr %25, align 8, !tbaa !162
  %27 = icmp eq ptr %26, null
  br i1 %27, label %zend_generator_get_current.exit.thread, label %31, !prof !70

zend_generator_get_current.exit.thread:           ; preds = %24
  %28 = load ptr, ptr %9, align 8, !tbaa !158
  %29 = getelementptr inbounds nuw i8, ptr %28, i64 48
  %30 = load ptr, ptr %29, align 8, !tbaa !163
  br label %zend_generator_get_current.exit._crit_edge

31:                                               ; preds = %24
  %32 = getelementptr inbounds nuw i8, ptr %7, i64 176
  %33 = load ptr, ptr %32, align 8, !tbaa !26
  %.not.i = icmp eq ptr %33, null
  br i1 %.not.i, label %34, label %36

34:                                               ; preds = %31
  %35 = call ptr @zend_generator_update_root(ptr noundef nonnull %7) #13
  br label %36

36:                                               ; preds = %34, %31
  %.0.i = phi ptr [ %33, %31 ], [ %35, %34 ]
  %37 = getelementptr inbounds nuw i8, ptr %.0.i, i64 56
  %38 = load ptr, ptr %37, align 8, !tbaa !158
  %.not11.i = icmp eq ptr %38, null
  br i1 %.not11.i, label %39, label %zend_generator_get_current.exit, !prof !75

39:                                               ; preds = %36
  %40 = call ptr @zend_generator_update_current(ptr noundef nonnull %7) #13
  br label %zend_generator_get_current.exit

zend_generator_get_current.exit:                  ; preds = %36, %39
  %.09.i = phi ptr [ %40, %39 ], [ %.0.i, %36 ]
  %41 = load ptr, ptr %9, align 8, !tbaa !158
  %42 = getelementptr inbounds nuw i8, ptr %41, i64 48
  %43 = load ptr, ptr %42, align 8, !tbaa !163
  %44 = icmp eq ptr %7, %.09.i
  %.phi.trans.insert.phi.trans.insert = getelementptr inbounds nuw i8, ptr %.09.i, i64 56
  %.pre.pre = load ptr, ptr %.phi.trans.insert.phi.trans.insert, align 8, !tbaa !158
  br i1 %44, label %zend_generator_get_current.exit._crit_edge, label %47

zend_generator_get_current.exit._crit_edge:       ; preds = %zend_generator_get_current.exit, %zend_generator_get_current.exit.thread
  %.pre = phi ptr [ %28, %zend_generator_get_current.exit.thread ], [ %.pre.pre, %zend_generator_get_current.exit ]
  %45 = phi ptr [ %30, %zend_generator_get_current.exit.thread ], [ %43, %zend_generator_get_current.exit ]
  %46 = phi ptr [ %29, %zend_generator_get_current.exit.thread ], [ %42, %zend_generator_get_current.exit ]
  %.09.i24 = phi ptr [ %7, %zend_generator_get_current.exit.thread ], [ %.09.i, %zend_generator_get_current.exit ]
  store ptr null, ptr %46, align 8, !tbaa !163
  br label %52

47:                                               ; preds = %zend_generator_get_current.exit
  %48 = getelementptr inbounds nuw i8, ptr %.pre.pre, i64 48
  %49 = load ptr, ptr %48, align 8, !tbaa !163
  %50 = getelementptr inbounds nuw i8, ptr %7, i64 184
  %51 = getelementptr inbounds nuw i8, ptr %7, i64 232
  store ptr null, ptr %51, align 8, !tbaa !164
  store ptr %50, ptr %48, align 8, !tbaa !163
  br label %52

52:                                               ; preds = %47, %zend_generator_get_current.exit._crit_edge
  %53 = phi ptr [ %.pre, %zend_generator_get_current.exit._crit_edge ], [ %.pre.pre, %47 ]
  %54 = phi ptr [ %45, %zend_generator_get_current.exit._crit_edge ], [ %43, %47 ]
  %.09.i23 = phi ptr [ %.09.i24, %zend_generator_get_current.exit._crit_edge ], [ %.09.i, %47 ]
  %.0 = phi ptr [ null, %zend_generator_get_current.exit._crit_edge ], [ %49, %47 ]
  %55 = getelementptr inbounds nuw i8, ptr %.09.i23, i64 56
  store ptr %53, ptr getelementptr inbounds nuw (i8, ptr @executor_globals, i64 512), align 8, !tbaa !157
  %56 = load i64, ptr %3, align 8, !tbaa !65
  %57 = trunc i64 %56 to i32
  call void @zend_fetch_debug_backtrace(ptr noundef %1, i32 noundef 0, i32 noundef %57, i32 noundef 0) #13
  store ptr %8, ptr getelementptr inbounds nuw (i8, ptr @executor_globals, i64 512), align 8, !tbaa !157
  %58 = load ptr, ptr %55, align 8, !tbaa !158
  %59 = getelementptr inbounds nuw i8, ptr %58, i64 48
  store ptr %.0, ptr %59, align 8, !tbaa !163
  %60 = load ptr, ptr %9, align 8, !tbaa !158
  %61 = getelementptr inbounds nuw i8, ptr %60, i64 48
  store ptr %54, ptr %61, align 8, !tbaa !163
  br label %62

62:                                               ; preds = %52, %19, %15
  call void @llvm.lifetime.end.p0(i64 8, ptr nonnull %3) #13
  ret void
}